target datalayout = "e-m:e-p270:32:32-p271:32:32-p272:64:64-i64:64-i128:128-f80:128-n8:16:32:64-S128"
target triple = "x86_64-pc-linux-gnu"

%struct.LPCContext = type { i32, i32, i32, ptr, ptr, ptr, ptr, [2 x %struct.LLSModel] }
%struct.LLSModel = type { [36 x [36 x double]], [32 x [32 x double]], [32 x double], i32, ptr, ptr, [8 x i8] }

; Function Attrs: inlinehint nounwind uwtable
define internal void @compute_ref_coefs(ptr noundef %0, i32 noundef %1, ptr noundef %2, ptr noundef %3) #2 {
  %5 = alloca ptr, align 8
  %6 = alloca i32, align 4
  %7 = alloca ptr, align 8
  %8 = alloca ptr, align 8
  %9 = alloca double, align 8
  %10 = alloca [32 x double], align 16
  %11 = alloca [32 x double], align 16
  %12 = alloca i32, align 4
  %13 = alloca i32, align 4
  %14 = alloca i32, align 4
  %15 = alloca i32, align 4
  store ptr %0, ptr %5, align 8, !tbaa !13
  store i32 %1, ptr %6, align 4, !tbaa !11
  store ptr %2, ptr %7, align 8, !tbaa !13
  store ptr %3, ptr %8, align 8, !tbaa !13
  call void @llvm.lifetime.start.p0(i64 8, ptr %9) #9
  call void @llvm.lifetime.start.p0(i64 256, ptr %10) #9
  call void @llvm.lifetime.start.p0(i64 256, ptr %11) #9
  call void @llvm.lifetime.start.p0(i64 4, ptr %12) #9
  store i32 0, ptr %12, align 4, !tbaa !11
  br label %16

16:                                               ; preds = %34, %4
  %17 = load i32, ptr %12, align 4, !tbaa !11
  %18 = load i32, ptr %6, align 4, !tbaa !11
  %19 = icmp slt i32 %17, %18
  br i1 %19, label %21, label %20

20:                                               ; preds = %16
  call void @llvm.lifetime.end.p0(i64 4, ptr %12) #9
  br label %37

21:                                               ; preds = %16
  %22 = load ptr, ptr %5, align 8, !tbaa !13
  %23 = load i32, ptr %12, align 4, !tbaa !11
  %24 = add nsw i32 %23, 1
  %25 = sext i32 %24 to i64
  %26 = getelementptr inbounds double, ptr %22, i64 %25
  %27 = load double, ptr %26, align 8, !tbaa !20
  %28 = load i32, ptr %12, align 4, !tbaa !11
  %29 = sext i32 %28 to i64
  %30 = getelementptr inbounds [32 x double], ptr %11, i64 0, i64 %29
  store double %27, ptr %30, align 8, !tbaa !20
  %31 = load i32, ptr %12, align 4, !tbaa !11
  %32 = sext i32 %31 to i64
  %33 = getelementptr inbounds [32 x double], ptr %10, i64 0, i64 %32
  store double %27, ptr %33, align 8, !tbaa !20
  br label %34

34:                                               ; preds = %21
  %35 = load i32, ptr %12, align 4, !tbaa !11
  %36 = add nsw i32 %35, 1
  store i32 %36, ptr %12, align 4, !tbaa !11
  br label %16, !llvm.loop !22

37:                                               ; preds = %20
  %38 = load ptr, ptr %5, align 8, !tbaa !13
  %39 = getelementptr inbounds double, ptr %38, i64 0
  %40 = load double, ptr %39, align 8, !tbaa !20
  store double %40, ptr %9, align 8, !tbaa !20
  %41 = getelementptr inbounds [32 x double], ptr %11, i64 0, i64 0
  %42 = load double, ptr %41, align 16, !tbaa !20
  %43 = fneg nsz double %42
  %44 = load double, ptr %9, align 8, !tbaa !20
  %45 = fcmp nsz une double %44, 0.000000e+00
  br i1 %45, label %46, label %48

46:                                               ; preds = %37
  %47 = load double, ptr %9, align 8, !tbaa !20
  br label %49

48:                                               ; preds = %37
  br label %49

49:                                               ; preds = %48, %46
  %50 = phi nsz double [ %47, %46 ], [ 1.000000e+00, %48 ]
  %51 = fdiv nsz double %43, %50
  %52 = load ptr, ptr %7, align 8, !tbaa !13
  %53 = getelementptr inbounds double, ptr %52, i64 0
  store double %51, ptr %53, align 8, !tbaa !20
  %54 = getelementptr inbounds [32 x double], ptr %11, i64 0, i64 0
  %55 = load double, ptr %54, align 16, !tbaa !20
  %56 = load ptr, ptr %7, align 8, !tbaa !13
  %57 = getelementptr inbounds double, ptr %56, i64 0
  %58 = load double, ptr %57, align 8, !tbaa !20
  %59 = load double, ptr %9, align 8, !tbaa !20
  %60 = call nsz double @llvm.fmuladd.f64(double %55, double %58, double %59)
  store double %60, ptr %9, align 8, !tbaa !20
  %61 = load ptr, ptr %8, align 8, !tbaa !13
  %62 = icmp ne ptr %61, null
  br i1 %62, label %63, label %67

63:                                               ; preds = %49
  %64 = load double, ptr %9, align 8, !tbaa !20
  %65 = load ptr, ptr %8, align 8, !tbaa !13
  %66 = getelementptr inbounds double, ptr %65, i64 0
  store double %64, ptr %66, align 8, !tbaa !20
  br label %67

67:                                               ; preds = %63, %49
  call void @llvm.lifetime.start.p0(i64 4, ptr %13) #9
  store i32 1, ptr %13, align 4, !tbaa !11
  br label %68

68:                                               ; preds = %157, %67
  %69 = load i32, ptr %13, align 4, !tbaa !11
  %70 = load i32, ptr %6, align 4, !tbaa !11
  %71 = icmp slt i32 %69, %70
  br i1 %71, label %73, label %72

72:                                               ; preds = %68
  store i32 5, ptr %14, align 4
  call void @llvm.lifetime.end.p0(i64 4, ptr %13) #9
  br label %160

73:                                               ; preds = %68
  call void @llvm.lifetime.start.p0(i64 4, ptr %15) #9
  store i32 0, ptr %15, align 4, !tbaa !11
  br label %74

74:                                               ; preds = %120, %73
  %75 = load i32, ptr %15, align 4, !tbaa !11
  %76 = load i32, ptr %6, align 4, !tbaa !11
  %77 = load i32, ptr %13, align 4, !tbaa !11
  %78 = sub nsw i32 %76, %77
  %79 = icmp slt i32 %75, %78
  br i1 %79, label %81, label %80

80:                                               ; preds = %74
  store i32 8, ptr %14, align 4
  call void @llvm.lifetime.end.p0(i64 4, ptr %15) #9
  br label %123

81:                                               ; preds = %74
  %82 = load i32, ptr %15, align 4, !tbaa !11
  %83 = add nsw i32 %82, 1
  %84 = sext i32 %83 to i64
  %85 = getelementptr inbounds [32 x double], ptr %11, i64 0, i64 %84
  %86 = load double, ptr %85, align 8, !tbaa !20
  %87 = load ptr, ptr %7, align 8, !tbaa !13
  %88 = load i32, ptr %13, align 4, !tbaa !11
  %89 = sub nsw i32 %88, 1
  %90 = sext i32 %89 to i64
  %91 = getelementptr inbounds double, ptr %87, i64 %90
  %92 = load double, ptr %91, align 8, !tbaa !20
  %93 = load i32, ptr %15, align 4, !tbaa !11
  %94 = sext i32 %93 to i64
  %95 = getelementptr inbounds [32 x double], ptr %10, i64 0, i64 %94
  %96 = load double, ptr %95, align 8, !tbaa !20
  %97 = call nsz double @llvm.fmuladd.f64(double %92, double %96, double %86)
  %98 = load i32, ptr %15, align 4, !tbaa !11
  %99 = sext i32 %98 to i64
  %100 = getelementptr inbounds [32 x double], ptr %11, i64 0, i64 %99
  store double %97, ptr %100, align 8, !tbaa !20
  %101 = load i32, ptr %15, align 4, !tbaa !11
  %102 = add nsw i32 %101, 1
  %103 = sext i32 %102 to i64
  %104 = getelementptr inbounds [32 x double], ptr %11, i64 0, i64 %103
  %105 = load double, ptr %104, align 8, !tbaa !20
  %106 = load ptr, ptr %7, align 8, !tbaa !13
  %107 = load i32, ptr %13, align 4, !tbaa !11
  %108 = sub nsw i32 %107, 1
  %109 = sext i32 %108 to i64
  %110 = getelementptr inbounds double, ptr %106, i64 %109
  %111 = load double, ptr %110, align 8, !tbaa !20
  %112 = load i32, ptr %15, align 4, !tbaa !11
  %113 = sext i32 %112 to i64
  %114 = getelementptr inbounds [32 x double], ptr %10, i64 0, i64 %113
  %115 = load double, ptr %114, align 8, !tbaa !20
  %116 = call nsz double @llvm.fmuladd.f64(double %105, double %111, double %115)
  %117 = load i32, ptr %15, align 4, !tbaa !11
  %118 = sext i32 %117 to i64
  %119 = getelementptr inbounds [32 x double], ptr %10, i64 0, i64 %118
  store double %116, ptr %119, align 8, !tbaa !20
  br label %120

120:                                              ; preds = %81
  %121 = load i32, ptr %15, align 4, !tbaa !11
  %122 = add nsw i32 %121, 1
  store i32 %122, ptr %15, align 4, !tbaa !11
  br label %74, !llvm.loop !24

123:                                              ; preds = %80
  %124 = getelementptr inbounds [32 x double], ptr %11, i64 0, i64 0
  %125 = load double, ptr %124, align 16, !tbaa !20
  %126 = fneg nsz double %125
  %127 = load double, ptr %9, align 8, !tbaa !20
  %128 = fcmp nsz une double %127, 0.000000e+00
  br i1 %128, label %129, label %131

129:                                              ; preds = %123
  %130 = load double, ptr %9, align 8, !tbaa !20
  br label %132

131:                                              ; preds = %123
  br label %132

132:                                              ; preds = %131, %129
  %133 = phi nsz double [ %130, %129 ], [ 1.000000e+00, %131 ]
  %134 = fdiv nsz double %126, %133
  %135 = load ptr, ptr %7, align 8, !tbaa !13
  %136 = load i32, ptr %13, align 4, !tbaa !11
  %137 = sext i32 %136 to i64
  %138 = getelementptr inbounds double, ptr %135, i64 %137
  store double %134, ptr %138, align 8, !tbaa !20
  %139 = getelementptr inbounds [32 x double], ptr %11, i64 0, i64 0
  %140 = load double, ptr %139, align 16, !tbaa !20
  %141 = load ptr, ptr %7, align 8, !tbaa !13
  %142 = load i32, ptr %13, align 4, !tbaa !11
  %143 = sext i32 %142 to i64
  %144 = getelementptr inbounds double, ptr %141, i64 %143
  %145 = load double, ptr %144, align 8, !tbaa !20
  %146 = load double, ptr %9, align 8, !tbaa !20
  %147 = call nsz double @llvm.fmuladd.f64(double %140, double %145, double %146)
  store double %147, ptr %9, align 8, !tbaa !20
  %148 = load ptr, ptr %8, align 8, !tbaa !13
  %149 = icmp ne ptr %148, null
  br i1 %149, label %150, label %156

150:                                              ; preds = %132
  %151 = load double, ptr %9, align 8, !tbaa !20
  %152 = load ptr, ptr %8, align 8, !tbaa !13
  %153 = load i32, ptr %13, align 4, !tbaa !11
  %154 = sext i32 %153 to i64
  %155 = getelementptr inbounds double, ptr %152, i64 %154
  store double %151, ptr %155, align 8, !tbaa !20
  br label %156

156:                                              ; preds = %150, %132
  br label %157

157:                                              ; preds = %156
  %158 = load i32, ptr %13, align 4, !tbaa !11
  %159 = add nsw i32 %158, 1
  store i32 %159, ptr %13, align 4, !tbaa !11
  br label %68, !llvm.loop !25

160:                                              ; preds = %72
  call void @llvm.lifetime.end.p0(i64 256, ptr %11) #9
  call void @llvm.lifetime.end.p0(i64 256, ptr %10) #9
  call void @llvm.lifetime.end.p0(i64 8, ptr %9) #9
  ret void
}

; Function Attrs: nounwind uwtable
define i32 @ff_lpc_calc_ref_coefs(ptr noundef %0, ptr noundef %1, i32 noundef %2, ptr noundef %3) #0 {
  %5 = alloca ptr, align 8
  %6 = alloca ptr, align 8
  %7 = alloca i32, align 4
  %8 = alloca ptr, align 8
  %9 = alloca [33 x double], align 16
  store ptr %0, ptr %5, align 8, !tbaa !4
  store ptr %1, ptr %6, align 8, !tbaa !9
  store i32 %2, ptr %7, align 4, !tbaa !11
  store ptr %3, ptr %8, align 8, !tbaa !13
  call void @llvm.lifetime.start.p0(i64 264, ptr %9) #9
  %10 = load ptr, ptr %5, align 8, !tbaa !4
  %11 = getelementptr inbounds nuw %struct.LPCContext, ptr %10, i32 0, i32 5
  %12 = load ptr, ptr %11, align 16, !tbaa !15
  %13 = load ptr, ptr %6, align 8, !tbaa !9
  %14 = load ptr, ptr %5, align 8, !tbaa !4
  %15 = getelementptr inbounds nuw %struct.LPCContext, ptr %14, i32 0, i32 0
  %16 = load i32, ptr %15, align 16, !tbaa !17
  %17 = sext i32 %16 to i64
  %18 = load ptr, ptr %5, align 8, !tbaa !4
  %19 = getelementptr inbounds nuw %struct.LPCContext, ptr %18, i32 0, i32 4
  %20 = load ptr, ptr %19, align 8, !tbaa !18
  call void %12(ptr noundef %13, i64 noundef %17, ptr noundef %20)
  %21 = load ptr, ptr %5, align 8, !tbaa !4
  %22 = getelementptr inbounds nuw %struct.LPCContext, ptr %21, i32 0, i32 6
  %23 = load ptr, ptr %22, align 8, !tbaa !19
  %24 = load ptr, ptr %5, align 8, !tbaa !4
  %25 = getelementptr inbounds nuw %struct.LPCContext, ptr %24, i32 0, i32 4
  %26 = load ptr, ptr %25, align 8, !tbaa !18
  %27 = load ptr, ptr %5, align 8, !tbaa !4
  %28 = getelementptr inbounds nuw %struct.LPCContext, ptr %27, i32 0, i32 0
  %29 = load i32, ptr %28, align 16, !tbaa !17
  %30 = sext i32 %29 to i64
  %31 = load i32, ptr %7, align 4, !tbaa !11
  %32 = getelementptr inbounds [33 x double], ptr %9, i64 0, i64 0
  call void %23(ptr noundef %26, i64 noundef %30, i32 noundef %31, ptr noundef %32)
  %33 = getelementptr inbounds [33 x double], ptr %9, i64 0, i64 0
  %34 = load i32, ptr %7, align 4, !tbaa !11
  %35 = load ptr, ptr %8, align 8, !tbaa !13
  call void @compute_ref_coefs(ptr noundef %33, i32 noundef %34, ptr noundef %35, ptr noundef null)
  %36 = load i32, ptr %7, align 4, !tbaa !11
  call void @llvm.lifetime.end.p0(i64 264, ptr %9) #9
  ret i32 %36
}