; Function Attrs: nounwind uwtable
define noundef i32 @ff_lpc_calc_ref_coefs(ptr noundef readonly captures(none) %0, ptr noundef %1, i32 noundef returned %2, ptr noundef captures(none) initializes((0, 8)) %3) local_unnamed_addr #0 {
  %5 = alloca [32 x double], align 16
  %6 = alloca [32 x double], align 16
  %7 = alloca [33 x double], align 16
  call void @llvm.lifetime.start.p0(i64 264, ptr nonnull %7) #10
  %8 = getelementptr inbounds nuw i8, ptr %0, i64 32
  %9 = load ptr, ptr %8, align 16, !tbaa !4
  %10 = load i32, ptr %0, align 16, !tbaa !11
  %11 = sext i32 %10 to i64
  %12 = getelementptr inbounds nuw i8, ptr %0, i64 24
  %13 = load ptr, ptr %12, align 8, !tbaa !12
  tail call void %9(ptr noundef %1, i64 noundef %11, ptr noundef %13) #10
  %14 = getelementptr inbounds nuw i8, ptr %0, i64 40
  %15 = load ptr, ptr %14, align 8, !tbaa !13
  %16 = load ptr, ptr %12, align 8, !tbaa !12
  %17 = load i32, ptr %0, align 16, !tbaa !11
  %18 = sext i32 %17 to i64
  call void %15(ptr noundef %16, i64 noundef %18, i32 noundef %2, ptr noundef nonnull %7) #10
  call void @llvm.lifetime.start.p0(i64 256, ptr nonnull %5) #10
  call void @llvm.lifetime.start.p0(i64 256, ptr nonnull %6) #10
  %19 = icmp sgt i32 %2, 0
  br i1 %19, label %.lr.ph.preheader.i, label %._crit_edge.i

.lr.ph.preheader.i:                               ; preds = %4
  %scevgep.i = getelementptr inbounds nuw i8, ptr %7, i64 8
  %20 = zext nneg i32 %2 to i64
  %21 = shl nuw nsw i64 %20, 3
  call void @llvm.memcpy.p0.p0.i64(ptr nonnull align 16 %6, ptr nonnull readonly align 8 %scevgep.i, i64 %21, i1 false), !tbaa !14
  call void @llvm.memcpy.p0.p0.i64(ptr nonnull align 16 %5, ptr nonnull readonly align 8 %scevgep.i, i64 %21, i1 false), !tbaa !14
  %.pre.i = load double, ptr %6, align 16, !tbaa !14
  br label %._crit_edge.i

._crit_edge.i:                                    ; preds = %.lr.ph.preheader.i, %4
  %22 = phi double [ %.pre.i, %.lr.ph.preheader.i ], [ undef, %4 ]
  %23 = load double, ptr %7, align 16, !tbaa !14
  %24 = fneg nsz double %22
  %25 = fcmp nsz une double %23, 0.000000e+00
  %26 = select nsz i1 %25, double %23, double 1.000000e+00
  %27 = fdiv nsz double %24, %26
  store double %27, ptr %3, align 8, !tbaa !14
  %28 = icmp sgt i32 %2, 1
  br i1 %28, label %.preheader.us.preheader.i, label %compute_ref_coefs.exit

.preheader.us.preheader.i:                        ; preds = %._crit_edge.i
  %29 = call nsz double @llvm.fmuladd.f64(double %22, double %27, double %23)
  %invariant.gep.i = getelementptr i8, ptr %3, i64 -8
  %30 = zext nneg i32 %2 to i64
  br label %.preheader.us.i

.preheader.us.i:                                  ; preds = %._crit_edge51.us.i, %.preheader.us.preheader.i
  %31 = phi double [ %22, %.preheader.us.preheader.i ], [ %33, %._crit_edge51.us.i ]
  %indvars.iv72.i = phi i64 [ 1, %.preheader.us.preheader.i ], [ %indvars.iv.next73.i, %._crit_edge51.us.i ]
  %indvars.iv68.in.i = phi i32 [ %2, %.preheader.us.preheader.i ], [ %indvars.iv68.i, %._crit_edge51.us.i ]
  %.04552.us.i = phi double [ %29, %.preheader.us.preheader.i ], [ %39, %._crit_edge51.us.i ]
  %indvars.iv68.i = add i32 %indvars.iv68.in.i, -1
  %32 = icmp samesign ult i64 %indvars.iv72.i, %30
  br i1 %32, label %.lr.ph50.us.i, label %._crit_edge51.us.i

._crit_edge51.us.loopexit.i:                      ; preds = %40
  %.pre78.i = load double, ptr %6, align 16, !tbaa !14
  br label %._crit_edge51.us.i

._crit_edge51.us.i:                               ; preds = %._crit_edge51.us.loopexit.i, %.preheader.us.i
  %33 = phi double [ %.pre78.i, %._crit_edge51.us.loopexit.i ], [ %31, %.preheader.us.i ]
  %34 = fneg nsz double %33
  %35 = fcmp nsz une double %.04552.us.i, 0.000000e+00
  %36 = select nsz i1 %35, double %.04552.us.i, double 1.000000e+00
  %37 = fdiv nsz double %34, %36
  %38 = getelementptr inbounds nuw double, ptr %3, i64 %indvars.iv72.i
  store double %37, ptr %38, align 8, !tbaa !14
  %39 = call nsz double @llvm.fmuladd.f64(double %33, double %37, double %.04552.us.i)
  %indvars.iv.next73.i = add nuw nsw i64 %indvars.iv72.i, 1
  %exitcond76.not.i = icmp eq i64 %indvars.iv.next73.i, %30
  br i1 %exitcond76.not.i, label %compute_ref_coefs.exit, label %.preheader.us.i, !llvm.loop !16

40:                                               ; preds = %.lr.ph50.us.i, %40
  %indvars.iv65.i = phi i64 [ 0, %.lr.ph50.us.i ], [ %indvars.iv.next66.i, %40 ]
  %indvars.iv.next66.i = add nuw nsw i64 %indvars.iv65.i, 1
  %41 = getelementptr inbounds nuw [32 x double], ptr %6, i64 0, i64 %indvars.iv.next66.i
  %42 = load double, ptr %41, align 8, !tbaa !14
  %43 = getelementptr inbounds nuw [32 x double], ptr %5, i64 0, i64 %indvars.iv65.i
  %44 = load double, ptr %43, align 8, !tbaa !14
  %45 = call nsz double @llvm.fmuladd.f64(double %48, double %44, double %42)
  %46 = getelementptr inbounds nuw [32 x double], ptr %6, i64 0, i64 %indvars.iv65.i
  store double %45, ptr %46, align 8, !tbaa !14
  %47 = call nsz double @llvm.fmuladd.f64(double %42, double %48, double %44)
  store double %47, ptr %43, align 8, !tbaa !14
  %exitcond71.not.i = icmp eq i64 %indvars.iv.next66.i, %wide.trip.count70.i
  br i1 %exitcond71.not.i, label %._crit_edge51.us.loopexit.i, label %40, !llvm.loop !18

.lr.ph50.us.i:                                    ; preds = %.preheader.us.i
  %gep.us.i = getelementptr double, ptr %invariant.gep.i, i64 %indvars.iv72.i
  %48 = load double, ptr %gep.us.i, align 8, !tbaa !14
  %wide.trip.count70.i = zext i32 %indvars.iv68.i to i64
  br label %40

compute_ref_coefs.exit:                           ; preds = %._crit_edge51.us.i, %._crit_edge.i
  call void @llvm.lifetime.end.p0(i64 256, ptr nonnull %6) #10
  call void @llvm.lifetime.end.p0(i64 256, ptr nonnull %5) #10
  call void @llvm.lifetime.end.p0(i64 264, ptr nonnull %7) #10
  ret i32 %2
}